target datalayout = "e-m:e-p270:32:32-p271:32:32-p272:64:64-i64:64-i128:128-f80:128-n8:16:32:64-S128"
target triple = "x86_64-pc-linux-gnu"

%struct.rb_data_type_struct = type { ptr, %struct.anon.4, ptr, ptr, i64 }
%struct.anon.4 = type { ptr, ptr, ptr, ptr, [1 x ptr] }
%struct.RBasic = type { i64, i64 }
%struct.sockaddr_in = type { i16, i16, %struct.in_addr, [8 x i8] }
%struct.in_addr = type { i32 }
%struct.sockaddr_in6 = type { i16, i16, i32, %struct.in6_addr, i32 }
%struct.in6_addr = type { %union.anon.3 }
%union.anon.3 = type { [4 x i32] }
%struct.sockaddr = type { i16, [14 x i8] }
%struct.RData = type { %struct.RBasic, ptr, ptr, ptr }
%struct.rb_addrinfo_t = type { i64, i64, i32, i32, i32, i32, %union.union_sockaddr }
%union.union_sockaddr = type { %struct.sockaddr_storage, [1920 x i8] }
%struct.sockaddr_storage = type { i16, [118 x i8], i64 }

@rb_eArgError = external global i64, align 8
@rb_cAddrinfo = external global i64, align 8
@addrinfo_type = internal constant %struct.rb_data_type_struct { ptr @.str.102, %struct.anon.4 { ptr @addrinfo_mark, ptr inttoptr (i64 -1 to ptr), ptr @addrinfo_memsize, ptr null, [1 x ptr] zeroinitializer }, ptr null, ptr null, i64 0 }, align 8
@rb_eTypeError = external global i64, align 8
@.str.100 = private unnamed_addr constant [24 x i8] c"sockaddr string too big\00", align 1
@.str.101 = private unnamed_addr constant [29 x i8] c"uninitialized socket address\00", align 1

; Function Attrs: nounwind sspstrong uwtable
define internal void @init_addrinfo(ptr noundef %0, ptr noundef %1, i32 noundef %2, i32 noundef %3, i32 noundef %4, i32 noundef %5, i64 noundef %6, i64 noundef %7) #0 {
  %9 = alloca ptr, align 8
  %10 = alloca ptr, align 8
  %11 = alloca i32, align 4
  %12 = alloca i32, align 4
  %13 = alloca i32, align 4
  %14 = alloca i32, align 4
  %15 = alloca i64, align 8
  %16 = alloca i64, align 8
  store ptr %0, ptr %9, align 8, !tbaa !26
  store ptr %1, ptr %10, align 8, !tbaa !29
  store i32 %2, ptr %11, align 4, !tbaa !27
  store i32 %3, ptr %12, align 4, !tbaa !27
  store i32 %4, ptr %13, align 4, !tbaa !27
  store i32 %5, ptr %14, align 4, !tbaa !27
  store i64 %6, ptr %15, align 8, !tbaa !31
  store i64 %7, ptr %16, align 8, !tbaa !31
  %17 = load i32, ptr %11, align 4, !tbaa !27
  %18 = icmp ult i32 2048, %17
  br i1 %18, label %19, label %21

19:                                               ; preds = %8
  %20 = load i64, ptr @rb_eArgError, align 8, !tbaa !31
  call void (i64, ptr, ...) @rb_raise(i64 noundef %20, ptr noundef @.str.100) #27
  unreachable

21:                                               ; preds = %8
  %22 = load ptr, ptr %9, align 8, !tbaa !26
  %23 = getelementptr inbounds nuw %struct.rb_addrinfo_t, ptr %22, i32 0, i32 6
  %24 = load ptr, ptr %10, align 8, !tbaa !29
  %25 = load i32, ptr %11, align 4, !tbaa !27
  %26 = zext i32 %25 to i64
  %27 = call nonnull ptr @ruby_nonempty_memcpy(ptr noundef %23, ptr noundef %24, i64 noundef %26) #25
  %28 = load i32, ptr %11, align 4, !tbaa !27
  %29 = load ptr, ptr %9, align 8, !tbaa !26
  %30 = getelementptr inbounds nuw %struct.rb_addrinfo_t, ptr %29, i32 0, i32 5
  store i32 %28, ptr %30, align 4, !tbaa !126
  %31 = load i32, ptr %12, align 4, !tbaa !27
  %32 = load ptr, ptr %9, align 8, !tbaa !26
  %33 = getelementptr inbounds nuw %struct.rb_addrinfo_t, ptr %32, i32 0, i32 2
  store i32 %31, ptr %33, align 8, !tbaa !127
  %34 = load i32, ptr %13, align 4, !tbaa !27
  %35 = load ptr, ptr %9, align 8, !tbaa !26
  %36 = getelementptr inbounds nuw %struct.rb_addrinfo_t, ptr %35, i32 0, i32 3
  store i32 %34, ptr %36, align 4, !tbaa !128
  %37 = load i32, ptr %14, align 4, !tbaa !27
  %38 = load ptr, ptr %9, align 8, !tbaa !26
  %39 = getelementptr inbounds nuw %struct.rb_addrinfo_t, ptr %38, i32 0, i32 4
  store i32 %37, ptr %39, align 8, !tbaa !129
  %40 = load i64, ptr %15, align 8, !tbaa !31
  %41 = load ptr, ptr %9, align 8, !tbaa !26
  %42 = getelementptr inbounds nuw %struct.rb_addrinfo_t, ptr %41, i32 0, i32 1
  store i64 %40, ptr %42, align 8, !tbaa !125
  %43 = load i64, ptr %16, align 8, !tbaa !31
  %44 = load ptr, ptr %9, align 8, !tbaa !26
  %45 = getelementptr inbounds nuw %struct.rb_addrinfo_t, ptr %44, i32 0, i32 0
  store i64 %43, ptr %45, align 8, !tbaa !123
  ret void
}

; Function Attrs: nounwind sspstrong uwtable
define internal ptr @alloc_addrinfo() #0 {
  %1 = alloca ptr, align 8
  call void @llvm.lifetime.start.p0(i64 8, ptr %1) #24
  %2 = call noalias nonnull ptr @ruby_xcalloc(i64 noundef 1, i64 noundef 2080) #32
  store ptr %2, ptr %1, align 8, !tbaa !26
  %3 = load ptr, ptr %1, align 8, !tbaa !26
  %4 = getelementptr inbounds nuw %struct.rb_addrinfo_t, ptr %3, i32 0, i32 0
  store i64 4, ptr %4, align 8, !tbaa !123
  %5 = load ptr, ptr %1, align 8, !tbaa !26
  %6 = getelementptr inbounds nuw %struct.rb_addrinfo_t, ptr %5, i32 0, i32 1
  store i64 4, ptr %6, align 8, !tbaa !125
  %7 = load ptr, ptr %1, align 8, !tbaa !26
  call void @llvm.lifetime.end.p0(i64 8, ptr %1) #24
  ret ptr %7
}

; Function Attrs: nounwind sspstrong uwtable
define internal i64 @addrinfo_s_allocate(i64 noundef %0) #0 {
  %2 = alloca i64, align 8
  store i64 %0, ptr %2, align 8, !tbaa !31
  %3 = load i64, ptr %2, align 8, !tbaa !31
  %4 = call i64 @rb_data_typed_object_wrap(i64 noundef %3, ptr noundef null, ptr noundef @addrinfo_type)
  ret i64 %4
}

; Function Attrs: alwaysinline nounwind
define internal ptr @memcpy.inline(ptr noalias nonnull %0, ptr noalias nonnull %1, i64 %2) #12 {
  %4 = alloca ptr, align 8
  %5 = alloca ptr, align 8
  %6 = alloca i64, align 8
  store ptr %0, ptr %4, align 8, !tbaa !26
  store ptr %1, ptr %5, align 8, !tbaa !26
  store i64 %2, ptr %6, align 8, !tbaa !31
  %7 = load ptr, ptr %4, align 8, !tbaa !26
  %8 = load ptr, ptr %5, align 8, !tbaa !26
  %9 = load i64, ptr %6, align 8, !tbaa !31
  %10 = load ptr, ptr %4, align 8, !tbaa !26
  %11 = call i64 @llvm.objectsize.i64.p0(ptr %10, i1 false, i1 true, i1 false)
  %12 = call ptr @__memcpy_chk(ptr noundef %7, ptr noundef %8, i64 noundef %9, i64 noundef %11) #24
  ret ptr %12
}

; Function Attrs: nounwind sspstrong uwtable
define internal i32 @get_afamily(ptr noundef %0, i32 noundef %1) #0 {
  %3 = alloca i32, align 4
  %4 = alloca ptr, align 8
  %5 = alloca i32, align 4
  store ptr %0, ptr %4, align 8, !tbaa !29
  store i32 %1, ptr %5, align 4, !tbaa !27
  %6 = load ptr, ptr %4, align 8, !tbaa !29
  %7 = getelementptr inbounds nuw %struct.sockaddr, ptr %6, i32 0, i32 0
  %8 = getelementptr inbounds nuw i8, ptr %7, i64 2
  %9 = load ptr, ptr %4, align 8, !tbaa !29
  %10 = ptrtoint ptr %8 to i64
  %11 = ptrtoint ptr %9 to i64
  %12 = sub i64 %10, %11
  %13 = trunc i64 %12 to i32
  %14 = load i32, ptr %5, align 4, !tbaa !27
  %15 = icmp ule i32 %13, %14
  br i1 %15, label %16, label %21

16:                                               ; preds = %2
  %17 = load ptr, ptr %4, align 8, !tbaa !29
  %18 = getelementptr inbounds nuw %struct.sockaddr, ptr %17, i32 0, i32 0
  %19 = load i16, ptr %18, align 2, !tbaa !96
  %20 = zext i16 %19 to i32
  store i32 %20, ptr %3, align 4
  br label %22

21:                                               ; preds = %2
  store i32 0, ptr %3, align 4
  br label %22

22:                                               ; preds = %21, %16
  %23 = load i32, ptr %3, align 4
  ret i32 %23
}

; Function Attrs: inlinehint nounwind sspstrong uwtable
define internal ptr @check_addrinfo(i64 noundef %0) #5 {
  %2 = alloca i64, align 8
  store i64 %0, ptr %2, align 8, !tbaa !31
  %3 = load i64, ptr %2, align 8, !tbaa !31
  %4 = call ptr @rb_check_typeddata(i64 noundef %3, ptr noundef @addrinfo_type)
  ret ptr %4
}

; Function Attrs: nounwind sspstrong uwtable
define i64 @rsock_addrinfo_new(ptr noundef %0, i32 noundef %1, i32 noundef %2, i32 noundef %3, i32 noundef %4, i64 noundef %5, i64 noundef %6) #0 {
  %8 = alloca ptr, align 8
  %9 = alloca i32, align 4
  %10 = alloca i32, align 4
  %11 = alloca i32, align 4
  %12 = alloca i32, align 4
  %13 = alloca i64, align 8
  %14 = alloca i64, align 8
  %15 = alloca i64, align 8
  %16 = alloca ptr, align 8
  store ptr %0, ptr %8, align 8, !tbaa !29
  store i32 %1, ptr %9, align 4, !tbaa !27
  store i32 %2, ptr %10, align 4, !tbaa !27
  store i32 %3, ptr %11, align 4, !tbaa !27
  store i32 %4, ptr %12, align 4, !tbaa !27
  store i64 %5, ptr %13, align 8, !tbaa !31
  store i64 %6, ptr %14, align 8, !tbaa !31
  call void @llvm.lifetime.start.p0(i64 8, ptr %15) #24
  call void @llvm.lifetime.start.p0(i64 8, ptr %16) #24
  %17 = load i64, ptr @rb_cAddrinfo, align 8, !tbaa !31
  %18 = call i64 @addrinfo_s_allocate(i64 noundef %17)
  store i64 %18, ptr %15, align 8, !tbaa !31
  %19 = call ptr @alloc_addrinfo()
  store ptr %19, ptr %16, align 8, !tbaa !26
  %20 = load i64, ptr %15, align 8, !tbaa !31
  %21 = inttoptr i64 %20 to ptr
  %22 = getelementptr inbounds nuw %struct.RData, ptr %21, i32 0, i32 3
  store ptr %19, ptr %22, align 8, !tbaa !121
  %23 = load ptr, ptr %16, align 8, !tbaa !26
  %24 = load ptr, ptr %8, align 8, !tbaa !29
  %25 = load i32, ptr %9, align 4, !tbaa !27
  %26 = load i32, ptr %10, align 4, !tbaa !27
  %27 = load i32, ptr %11, align 4, !tbaa !27
  %28 = load i32, ptr %12, align 4, !tbaa !27
  %29 = load i64, ptr %13, align 8, !tbaa !31
  %30 = load i64, ptr %14, align 8, !tbaa !31
  call void @init_addrinfo(ptr noundef %23, ptr noundef %24, i32 noundef %25, i32 noundef %26, i32 noundef %27, i32 noundef %28, i64 noundef %29, i64 noundef %30)
  %31 = load i64, ptr %15, align 8, !tbaa !31
  call void @llvm.lifetime.end.p0(i64 8, ptr %16) #24
  call void @llvm.lifetime.end.p0(i64 8, ptr %15) #24
  ret i64 %31
}

; Function Attrs: inlinehint nounwind sspstrong memory(argmem: readwrite, inaccessiblemem: readwrite) uwtable
define internal nonnull ptr @ruby_nonempty_memcpy(ptr noundef nonnull %0, ptr noundef %1, i64 noundef %2) #4 {
  %4 = alloca ptr, align 8
  %5 = alloca ptr, align 8
  %6 = alloca ptr, align 8
  %7 = alloca i64, align 8
  store ptr %0, ptr %5, align 8, !tbaa !26
  store ptr %1, ptr %6, align 8, !tbaa !26
  store i64 %2, ptr %7, align 8, !tbaa !31
  %8 = load i64, ptr %7, align 8, !tbaa !31
  %9 = icmp ne i64 %8, 0
  br i1 %9, label %10, label %15

10:                                               ; preds = %3
  %11 = load ptr, ptr %5, align 8, !tbaa !26
  %12 = load ptr, ptr %6, align 8, !tbaa !26
  %13 = load i64, ptr %7, align 8, !tbaa !31
  %14 = call ptr @memcpy.inline(ptr noundef %11, ptr noundef %12, i64 noundef %13) #24
  store ptr %14, ptr %4, align 8
  br label %17

15:                                               ; preds = %3
  %16 = load ptr, ptr %5, align 8, !tbaa !26
  store ptr %16, ptr %4, align 8
  br label %17

17:                                               ; preds = %15, %10
  %18 = load ptr, ptr %4, align 8
  ret ptr %18
}

; Function Attrs: alwaysinline nounwind
define internal ptr @memset.inline(ptr nonnull %0, i32 %1, i64 %2) #12 {
  %4 = alloca ptr, align 8
  %5 = alloca i32, align 4
  %6 = alloca i64, align 8
  store ptr %0, ptr %4, align 8, !tbaa !26
  store i32 %1, ptr %5, align 4, !tbaa !27
  store i64 %2, ptr %6, align 8, !tbaa !31
  %7 = load ptr, ptr %4, align 8, !tbaa !26
  %8 = load i32, ptr %5, align 4, !tbaa !27
  %9 = load i64, ptr %6, align 8, !tbaa !31
  %10 = load ptr, ptr %4, align 8, !tbaa !26
  %11 = call i64 @llvm.objectsize.i64.p0(ptr %10, i1 false, i1 true, i1 false)
  %12 = call ptr @__memset_chk(ptr noundef %7, i32 noundef %8, i64 noundef %9, i64 noundef %11) #24
  ret ptr %12
}

; Function Attrs: inlinehint nounwind sspstrong uwtable
define internal i32 @__bswap_32(i32 noundef %0) #5 {
  %2 = alloca i32, align 4
  store i32 %0, ptr %2, align 4, !tbaa !27
  %3 = load i32, ptr %2, align 4, !tbaa !27
  %4 = and i32 %3, -16777216
  %5 = lshr i32 %4, 24
  %6 = load i32, ptr %2, align 4, !tbaa !27
  %7 = and i32 %6, 16711680
  %8 = lshr i32 %7, 8
  %9 = or i32 %5, %8
  %10 = load i32, ptr %2, align 4, !tbaa !27
  %11 = and i32 %10, 65280
  %12 = shl i32 %11, 8
  %13 = or i32 %9, %12
  %14 = load i32, ptr %2, align 4, !tbaa !27
  %15 = and i32 %14, 255
  %16 = shl i32 %15, 24
  %17 = or i32 %13, %16
  ret i32 %17
}

; Function Attrs: nounwind sspstrong uwtable
define internal i32 @ai_get_afamily(ptr noundef %0) #0 {
  %2 = alloca ptr, align 8
  store ptr %0, ptr %2, align 8, !tbaa !26
  %3 = load ptr, ptr %2, align 8, !tbaa !26
  %4 = getelementptr inbounds nuw %struct.rb_addrinfo_t, ptr %3, i32 0, i32 6
  %5 = load ptr, ptr %2, align 8, !tbaa !26
  %6 = getelementptr inbounds nuw %struct.rb_addrinfo_t, ptr %5, i32 0, i32 5
  %7 = load i32, ptr %6, align 4, !tbaa !126
  %8 = call i32 @get_afamily(ptr noundef %4, i32 noundef %7)
  ret i32 %8
}

; Function Attrs: nounwind sspstrong uwtable
define internal ptr @get_addrinfo(i64 noundef %0) #0 {
  %2 = alloca i64, align 8
  %3 = alloca ptr, align 8
  store i64 %0, ptr %2, align 8, !tbaa !31
  call void @llvm.lifetime.start.p0(i64 8, ptr %3) #24
  %4 = load i64, ptr %2, align 8, !tbaa !31
  %5 = call ptr @check_addrinfo(i64 noundef %4)
  store ptr %5, ptr %3, align 8, !tbaa !26
  %6 = load ptr, ptr %3, align 8, !tbaa !26
  %7 = icmp ne ptr %6, null
  br i1 %7, label %10, label %8

8:                                                ; preds = %1
  %9 = load i64, ptr @rb_eTypeError, align 8, !tbaa !31
  call void (i64, ptr, ...) @rb_raise(i64 noundef %9, ptr noundef @.str.101) #27
  unreachable

10:                                               ; preds = %1
  %11 = load ptr, ptr %3, align 8, !tbaa !26
  call void @llvm.lifetime.end.p0(i64 8, ptr %3) #24
  ret ptr %11
}

; Function Attrs: nounwind sspstrong uwtable
define internal i64 @addrinfo_ipv6_to_ipv4(i64 noundef %0) #0 {
  %2 = alloca i64, align 8
  %3 = alloca i64, align 8
  %4 = alloca ptr, align 8
  %5 = alloca ptr, align 8
  %6 = alloca i32, align 4
  %7 = alloca i32, align 4
  %8 = alloca ptr, align 8
  %9 = alloca i32, align 4
  %10 = alloca ptr, align 8
  %11 = alloca i32, align 4
  %12 = alloca %struct.sockaddr_in, align 4
  %13 = alloca ptr, align 8
  %14 = alloca i32, align 4
  store i64 %0, ptr %3, align 8, !tbaa !31
  call void @llvm.lifetime.start.p0(i64 8, ptr %4) #24
  %15 = load i64, ptr %3, align 8, !tbaa !31
  %16 = call ptr @get_addrinfo(i64 noundef %15)
  store ptr %16, ptr %4, align 8, !tbaa !26
  call void @llvm.lifetime.start.p0(i64 8, ptr %5) #24
  call void @llvm.lifetime.start.p0(i64 4, ptr %6) #24
  %17 = load ptr, ptr %4, align 8, !tbaa !26
  %18 = call i32 @ai_get_afamily(ptr noundef %17)
  store i32 %18, ptr %6, align 4, !tbaa !27
  %19 = load i32, ptr %6, align 4, !tbaa !27
  %20 = icmp ne i32 %19, 10
  br i1 %20, label %21, label %22

21:                                               ; preds = %1
  store i64 4, ptr %2, align 8
  store i32 1, ptr %7, align 4
  br label %110

22:                                               ; preds = %1
  %23 = load ptr, ptr %4, align 8, !tbaa !26
  %24 = getelementptr inbounds nuw %struct.rb_addrinfo_t, ptr %23, i32 0, i32 6
  %25 = getelementptr inbounds nuw %struct.sockaddr_in6, ptr %24, i32 0, i32 3
  store ptr %25, ptr %5, align 8, !tbaa !174
  call void @llvm.lifetime.start.p0(i64 8, ptr %8) #24
  %26 = load ptr, ptr %5, align 8, !tbaa !174
  store ptr %26, ptr %8, align 8, !tbaa !174
  %27 = load ptr, ptr %8, align 8, !tbaa !174
  %28 = getelementptr inbounds nuw %struct.in6_addr, ptr %27, i32 0, i32 0
  %29 = getelementptr inbounds [4 x i32], ptr %28, i64 0, i64 0
  %30 = load i32, ptr %29, align 4, !tbaa !51
  %31 = icmp eq i32 %30, 0
  br i1 %31, label %32, label %45

32:                                               ; preds = %22
  %33 = load ptr, ptr %8, align 8, !tbaa !174
  %34 = getelementptr inbounds nuw %struct.in6_addr, ptr %33, i32 0, i32 0
  %35 = getelementptr inbounds [4 x i32], ptr %34, i64 0, i64 1
  %36 = load i32, ptr %35, align 4, !tbaa !51
  %37 = icmp eq i32 %36, 0
  br i1 %37, label %38, label %45

38:                                               ; preds = %32
  %39 = load ptr, ptr %8, align 8, !tbaa !174
  %40 = getelementptr inbounds nuw %struct.in6_addr, ptr %39, i32 0, i32 0
  %41 = getelementptr inbounds [4 x i32], ptr %40, i64 0, i64 2
  %42 = load i32, ptr %41, align 4, !tbaa !51
  %43 = call i32 @__bswap_32(i32 noundef 65535)
  %44 = icmp eq i32 %42, %43
  br label %45

45:                                               ; preds = %38, %32, %22
  %46 = phi i1 [ false, %32 ], [ false, %22 ], [ %44, %38 ]
  %47 = zext i1 %46 to i32
  store i32 %47, ptr %9, align 4, !tbaa !27
  call void @llvm.lifetime.end.p0(i64 8, ptr %8) #24
  %48 = load i32, ptr %9, align 4, !tbaa !27
  %49 = icmp ne i32 %48, 0
  br i1 %49, label %81, label %50

50:                                               ; preds = %45
  call void @llvm.lifetime.start.p0(i64 8, ptr %10) #24
  %51 = load ptr, ptr %5, align 8, !tbaa !174
  store ptr %51, ptr %10, align 8, !tbaa !174
  %52 = load ptr, ptr %10, align 8, !tbaa !174
  %53 = getelementptr inbounds nuw %struct.in6_addr, ptr %52, i32 0, i32 0
  %54 = getelementptr inbounds [4 x i32], ptr %53, i64 0, i64 0
  %55 = load i32, ptr %54, align 4, !tbaa !51
  %56 = icmp eq i32 %55, 0
  br i1 %56, label %57, label %76

57:                                               ; preds = %50
  %58 = load ptr, ptr %10, align 8, !tbaa !174
  %59 = getelementptr inbounds nuw %struct.in6_addr, ptr %58, i32 0, i32 0
  %60 = getelementptr inbounds [4 x i32], ptr %59, i64 0, i64 1
  %61 = load i32, ptr %60, align 4, !tbaa !51
  %62 = icmp eq i32 %61, 0
  br i1 %62, label %63, label %76

63:                                               ; preds = %57
  %64 = load ptr, ptr %10, align 8, !tbaa !174
  %65 = getelementptr inbounds nuw %struct.in6_addr, ptr %64, i32 0, i32 0
  %66 = getelementptr inbounds [4 x i32], ptr %65, i64 0, i64 2
  %67 = load i32, ptr %66, align 4, !tbaa !51
  %68 = icmp eq i32 %67, 0
  br i1 %68, label %69, label %76

69:                                               ; preds = %63
  %70 = load ptr, ptr %10, align 8, !tbaa !174
  %71 = getelementptr inbounds nuw %struct.in6_addr, ptr %70, i32 0, i32 0
  %72 = getelementptr inbounds [4 x i32], ptr %71, i64 0, i64 3
  %73 = load i32, ptr %72, align 4, !tbaa !51
  %74 = call i32 @__bswap_32(i32 noundef %73)
  %75 = icmp ugt i32 %74, 1
  br label %76

76:                                               ; preds = %69, %63, %57, %50
  %77 = phi i1 [ false, %63 ], [ false, %57 ], [ false, %50 ], [ %75, %69 ]
  %78 = zext i1 %77 to i32
  store i32 %78, ptr %11, align 4, !tbaa !27
  call void @llvm.lifetime.end.p0(i64 8, ptr %10) #24
  %79 = load i32, ptr %11, align 4, !tbaa !27
  %80 = icmp ne i32 %79, 0
  br i1 %80, label %81, label %109

81:                                               ; preds = %76, %45
  call void @llvm.lifetime.start.p0(i64 16, ptr %12) #24
  br label %82

82:                                               ; preds = %81
  call void @llvm.lifetime.start.p0(i64 8, ptr %13) #24
  store ptr %12, ptr %13, align 8, !tbaa !55
  call void @llvm.lifetime.start.p0(i64 4, ptr %14) #24
  store i32 16, ptr %14, align 4, !tbaa !27
  %83 = load ptr, ptr %13, align 8, !tbaa !55
  %84 = load i32, ptr %14, align 4, !tbaa !27
  %85 = zext i32 %84 to i64
  %86 = call ptr @memset.inline(ptr noundef %83, i32 noundef 0, i64 noundef %85) #24
  %87 = load ptr, ptr %13, align 8, !tbaa !55
  %88 = getelementptr inbounds nuw %struct.sockaddr_in, ptr %87, i32 0, i32 0
  store i16 2, ptr %88, align 4, !tbaa !57
  call void @llvm.lifetime.end.p0(i64 4, ptr %14) #24
  call void @llvm.lifetime.end.p0(i64 8, ptr %13) #24
  br label %89

89:                                               ; preds = %82
  br label %90

90:                                               ; preds = %89
  %91 = getelementptr inbounds nuw %struct.sockaddr_in, ptr %12, i32 0, i32 2
  %92 = load ptr, ptr %5, align 8, !tbaa !174
  %93 = getelementptr inbounds nuw i8, ptr %92, i64 16
  %94 = getelementptr inbounds i8, ptr %93, i64 -4
  %95 = call nonnull ptr @ruby_nonempty_memcpy(ptr noundef %91, ptr noundef %94, i64 noundef 4) #25
  %96 = load ptr, ptr %4, align 8, !tbaa !26
  %97 = getelementptr inbounds nuw %struct.rb_addrinfo_t, ptr %96, i32 0, i32 3
  %98 = load i32, ptr %97, align 4, !tbaa !128
  %99 = load ptr, ptr %4, align 8, !tbaa !26
  %100 = getelementptr inbounds nuw %struct.rb_addrinfo_t, ptr %99, i32 0, i32 4
  %101 = load i32, ptr %100, align 8, !tbaa !129
  %102 = load ptr, ptr %4, align 8, !tbaa !26
  %103 = getelementptr inbounds nuw %struct.rb_addrinfo_t, ptr %102, i32 0, i32 1
  %104 = load i64, ptr %103, align 8, !tbaa !125
  %105 = load ptr, ptr %4, align 8, !tbaa !26
  %106 = getelementptr inbounds nuw %struct.rb_addrinfo_t, ptr %105, i32 0, i32 0
  %107 = load i64, ptr %106, align 8, !tbaa !123
  %108 = call i64 @rsock_addrinfo_new(ptr noundef %12, i32 noundef 16, i32 noundef 2, i32 noundef %98, i32 noundef %101, i64 noundef %104, i64 noundef %107)
  store i64 %108, ptr %2, align 8
  store i32 1, ptr %7, align 4
  call void @llvm.lifetime.end.p0(i64 16, ptr %12) #24
  br label %110

109:                                              ; preds = %76
  store i64 4, ptr %2, align 8
  store i32 1, ptr %7, align 4
  br label %110

110:                                              ; preds = %109, %90, %21
  call void @llvm.lifetime.end.p0(i64 4, ptr %6) #24
  call void @llvm.lifetime.end.p0(i64 8, ptr %5) #24
  call void @llvm.lifetime.end.p0(i64 8, ptr %4) #24
  %111 = load i64, ptr %2, align 8
  ret i64 %111
}