; Function Attrs: nounwind sspstrong uwtable
define internal i64 @addrinfo_ipv6_to_ipv4(i64 noundef %0) #0 {
  %2 = tail call ptr @rb_check_typeddata(i64 noundef %0, ptr noundef nonnull @addrinfo_type) #21
  %.not.i = icmp eq ptr %2, null
  br i1 %.not.i, label %3, label %get_addrinfo.exit

3:                                                ; preds = %1
  %4 = load i64, ptr @rb_eTypeError, align 8, !tbaa !35
  tail call void (i64, ptr, ...) @rb_raise(i64 noundef %4, ptr noundef nonnull @.str.101) #23
  unreachable

get_addrinfo.exit:                                ; preds = %1
  %5 = getelementptr inbounds nuw i8, ptr %2, i64 28
  %6 = load i32, ptr %5, align 4, !tbaa !118
  %7 = icmp ugt i32 %6, 1
  br i1 %7, label %ai_get_afamily.exit, label %.critedge24

ai_get_afamily.exit:                              ; preds = %get_addrinfo.exit
  %8 = getelementptr inbounds nuw i8, ptr %2, i64 32
  %9 = load i16, ptr %8, align 2, !tbaa !91
  %.not = icmp eq i16 %9, 10
  br i1 %.not, label %10, label %.critedge24

10:                                               ; preds = %ai_get_afamily.exit
  %11 = getelementptr inbounds nuw i8, ptr %2, i64 40
  %12 = load i32, ptr %11, align 4, !tbaa !49
  %13 = icmp eq i32 %12, 0
  br i1 %13, label %14, label %.critedge24

14:                                               ; preds = %10
  %15 = getelementptr inbounds nuw i8, ptr %2, i64 44
  %16 = load i32, ptr %15, align 4, !tbaa !49
  %17 = icmp eq i32 %16, 0
  br i1 %17, label %18, label %.critedge24

18:                                               ; preds = %14
  %19 = getelementptr inbounds nuw i8, ptr %2, i64 48
  %20 = load i32, ptr %19, align 4, !tbaa !49
  %21 = icmp eq i32 %20, -65536
  br i1 %21, label %._crit_edge, label %22

._crit_edge:                                      ; preds = %18
  %.phi.trans.insert = getelementptr inbounds nuw i8, ptr %2, i64 52
  %.pre = load i32, ptr %.phi.trans.insert, align 1
  br label %31

22:                                               ; preds = %18
  %23 = getelementptr inbounds nuw i8, ptr %2, i64 48
  %24 = load i32, ptr %23, align 4, !tbaa !49
  %25 = icmp eq i32 %24, 0
  br i1 %25, label %26, label %.critedge24

26:                                               ; preds = %22
  %27 = getelementptr inbounds nuw i8, ptr %2, i64 52
  %28 = load i32, ptr %27, align 4, !tbaa !49
  %29 = tail call noundef i32 @llvm.bswap.i32(i32 %28)
  %30 = icmp ugt i32 %29, 1
  br i1 %30, label %31, label %.critedge24

31:                                               ; preds = %._crit_edge, %26
  %32 = phi i32 [ %.pre, %._crit_edge ], [ %28, %26 ]
  %33 = getelementptr inbounds nuw i8, ptr %2, i64 20
  %34 = load i32, ptr %33, align 4, !tbaa !120
  %35 = getelementptr inbounds nuw i8, ptr %2, i64 24
  %36 = load i32, ptr %35, align 8, !tbaa !121
  %37 = getelementptr inbounds nuw i8, ptr %2, i64 8
  %38 = load i64, ptr %37, align 8, !tbaa !111
  %39 = load i64, ptr %2, align 8, !tbaa !109
  %40 = load i64, ptr @rb_cAddrinfo, align 8, !tbaa !35
  %41 = tail call i64 @rb_data_typed_object_wrap(i64 noundef %40, ptr noundef null, ptr noundef nonnull @addrinfo_type) #21
  %42 = tail call noalias noundef nonnull dereferenceable(2080) ptr @ruby_xcalloc(i64 noundef 1, i64 noundef 2080) #25
  %43 = getelementptr inbounds nuw i8, ptr %42, i64 8
  %44 = inttoptr i64 %41 to ptr
  %45 = getelementptr inbounds nuw i8, ptr %44, i64 32
  store ptr %42, ptr %45, align 8, !tbaa !112
  %46 = getelementptr inbounds nuw i8, ptr %42, i64 32
  store i16 2, ptr %46, align 1
  %.sroa.5.0..sroa_idx = getelementptr inbounds nuw i8, ptr %42, i64 34
  store i16 0, ptr %.sroa.5.0..sroa_idx, align 1
  %.sroa.527.0..sroa_idx = getelementptr inbounds nuw i8, ptr %42, i64 36
  store i32 %32, ptr %.sroa.527.0..sroa_idx, align 1
  %.sroa.6.0..sroa_idx = getelementptr inbounds nuw i8, ptr %42, i64 40
  store i64 0, ptr %.sroa.6.0..sroa_idx, align 1
  %47 = getelementptr inbounds nuw i8, ptr %42, i64 28
  store i32 16, ptr %47, align 4, !tbaa !118
  %48 = getelementptr inbounds nuw i8, ptr %42, i64 16
  store i32 2, ptr %48, align 8, !tbaa !119
  %49 = getelementptr inbounds nuw i8, ptr %42, i64 20
  store i32 %34, ptr %49, align 4, !tbaa !120
  %50 = getelementptr inbounds nuw i8, ptr %42, i64 24
  store i32 %36, ptr %50, align 8, !tbaa !121
  store i64 %38, ptr %43, align 8, !tbaa !111
  store i64 %39, ptr %42, align 8, !tbaa !109
  br label %.critedge24

.critedge24:                                      ; preds = %14, %get_addrinfo.exit, %10, %26, %22, %ai_get_afamily.exit, %31
  %.0 = phi i64 [ %41, %31 ], [ 4, %ai_get_afamily.exit ], [ 4, %22 ], [ 4, %26 ], [ 4, %10 ], [ 4, %get_addrinfo.exit ], [ 4, %14 ]
  ret i64 %.0
}